target datalayout = "e-m:e-p270:32:32-p271:32:32-p272:64:64-i64:64-i128:128-f80:128-n8:16:32:64-S128"
target triple = "x86_64-pc-linux-gnu"

%"class.std::__cxx11::basic_string" = type { %"struct.std::__cxx11::basic_string<char>::_Alloc_hider", i64, %union.anon }
%"struct.std::__cxx11::basic_string<char>::_Alloc_hider" = type { ptr }
%union.anon = type { i64, [8 x i8] }
%"struct.ceres::GradientProblemSolver::Summary" = type <{ i32, [4 x i8], %"class.std::__cxx11::basic_string", double, double, %"class.std::vector.14", i32, i32, double, double, double, double, i32, i32, i32, i32, i32, i32, i32, [4 x i8] }>
%"class.std::vector.14" = type { %"struct.std::_Vector_base.15" }
%"struct.std::_Vector_base.15" = type { %"struct.std::_Vector_base<ceres::IterationSummary, std::allocator<ceres::IterationSummary>>::_Vector_impl" }
%"struct.std::_Vector_base<ceres::IterationSummary, std::allocator<ceres::IterationSummary>>::_Vector_impl" = type { %"struct.std::_Vector_base<ceres::IterationSummary, std::allocator<ceres::IterationSummary>>::_Vector_impl_data" }
%"struct.std::_Vector_base<ceres::IterationSummary, std::allocator<ceres::IterationSummary>>::_Vector_impl_data" = type { ptr, ptr, ptr }

@.str.7 = private unnamed_addr constant [102 x i8] c"Ceres GradientProblemSolver Report: Iterations: %d, Initial cost: %e, Final cost: %e, Termination: %s\00", align 1

; Function Attrs: mustprogress nounwind uwtable
define linkonce_odr hidden noundef i64 @_ZNKSt6vectorIN5ceres16IterationSummaryESaIS1_EE4sizeEv(ptr noundef nonnull align 8 dereferenceable(24) %0) #1 comdat align 2 {
  %2 = alloca ptr, align 8
  store ptr %0, ptr %2, align 8
  %3 = load ptr, ptr %2, align 8
  %4 = getelementptr inbounds %"struct.std::_Vector_base.15", ptr %3, i32 0, i32 0
  %5 = getelementptr inbounds %"struct.std::_Vector_base<ceres::IterationSummary, std::allocator<ceres::IterationSummary>>::_Vector_impl_data", ptr %4, i32 0, i32 1
  %6 = load ptr, ptr %5, align 8
  %7 = getelementptr inbounds %"struct.std::_Vector_base.15", ptr %3, i32 0, i32 0
  %8 = getelementptr inbounds %"struct.std::_Vector_base<ceres::IterationSummary, std::allocator<ceres::IterationSummary>>::_Vector_impl_data", ptr %7, i32 0, i32 0
  %9 = load ptr, ptr %8, align 8
  %10 = ptrtoint ptr %6 to i64
  %11 = ptrtoint ptr %9 to i64
  %12 = sub i64 %10, %11
  %13 = sdiv exact i64 %12, 120
  ret i64 %13
}

; Function Attrs: mustprogress uwtable
define hidden void @_ZNK5ceres21GradientProblemSolver7Summary11BriefReportB5cxx11Ev(ptr dead_on_unwind noalias writable sret(%"class.std::__cxx11::basic_string") align 8 %0, ptr noundef nonnull align 8 dereferenceable(148) %1) #2 align 2 {
  %3 = alloca ptr, align 8
  %4 = alloca ptr, align 8
  store ptr %0, ptr %3, align 8
  store ptr %1, ptr %4, align 8
  %5 = load ptr, ptr %4, align 8
  %6 = getelementptr inbounds %"struct.ceres::GradientProblemSolver::Summary", ptr %5, i32 0, i32 5
  %7 = call noundef i64 @_ZNKSt6vectorIN5ceres16IterationSummaryESaIS1_EE4sizeEv(ptr noundef nonnull align 8 dereferenceable(24) %6) #16
  %8 = trunc i64 %7 to i32
  %9 = getelementptr inbounds %"struct.ceres::GradientProblemSolver::Summary", ptr %5, i32 0, i32 3
  %10 = load double, ptr %9, align 8
  %11 = getelementptr inbounds %"struct.ceres::GradientProblemSolver::Summary", ptr %5, i32 0, i32 4
  %12 = load double, ptr %11, align 8
  %13 = getelementptr inbounds %"struct.ceres::GradientProblemSolver::Summary", ptr %5, i32 0, i32 0
  %14 = load i32, ptr %13, align 8
  %15 = call noundef ptr @_ZN5ceres23TerminationTypeToStringENS_15TerminationTypeE(i32 noundef %14)
  call void (ptr, ptr, ...) @_ZN5ceres8internal12StringPrintfB5cxx11EPKcz(ptr dead_on_unwind writable sret(%"class.std::__cxx11::basic_string") align 8 %0, ptr noundef @.str.7, i32 noundef %8, double noundef %10, double noundef %12, ptr noundef %15)
  ret void
}