; Function Attrs: mustprogress uwtable
define hidden void @_ZNK5ceres21GradientProblemSolver7Summary11BriefReportB5cxx11Ev(ptr dead_on_unwind noalias writable sret(%"class.std::__cxx11::basic_string") align 8 %0, ptr nocapture noundef nonnull readonly align 8 dereferenceable(148) %1) local_unnamed_addr #0 align 2 {
  %3 = getelementptr inbounds i8, ptr %1, i64 56
  %4 = getelementptr inbounds i8, ptr %1, i64 64
  %5 = load ptr, ptr %4, align 8
  %6 = load ptr, ptr %3, align 8
  %7 = ptrtoint ptr %5 to i64
  %8 = ptrtoint ptr %6 to i64
  %9 = sub i64 %7, %8
  %10 = sdiv exact i64 %9, 120
  %11 = trunc i64 %10 to i32
  %12 = getelementptr inbounds i8, ptr %1, i64 40
  %13 = load double, ptr %12, align 8
  %14 = getelementptr inbounds i8, ptr %1, i64 48
  %15 = load double, ptr %14, align 8
  %16 = load i32, ptr %1, align 8
  %17 = tail call noundef ptr @_ZN5ceres23TerminationTypeToStringENS_15TerminationTypeE(i32 noundef %16)
  tail call void (ptr, ptr, ...) @_ZN5ceres8internal12StringPrintfB5cxx11EPKcz(ptr dead_on_unwind writable sret(%"class.std::__cxx11::basic_string") align 8 %0, ptr noundef nonnull @.str.7, i32 noundef %11, double noundef %13, double noundef %15, ptr noundef %17)
  ret void
}